target datalayout = "e-m:e-p270:32:32-p271:32:32-p272:64:64-i64:64-i128:128-f80:128-n8:16:32:64-S128"
target triple = "x86_64-pc-linux-gnu"

%union.anon = type { ptr }

; Function Attrs: inlinehint nounwind uwtable
define internal i64 @hash_fmix_64(i64 noundef %0) #4 {
  %2 = alloca i64, align 8
  store i64 %0, ptr %2, align 8, !tbaa !9
  %3 = load i64, ptr %2, align 8, !tbaa !9
  %4 = lshr i64 %3, 33
  %5 = load i64, ptr %2, align 8, !tbaa !9
  %6 = xor i64 %5, %4
  store i64 %6, ptr %2, align 8, !tbaa !9
  %7 = load i64, ptr %2, align 8, !tbaa !9
  %8 = mul i64 %7, -49064778989728563
  store i64 %8, ptr %2, align 8, !tbaa !9
  %9 = load i64, ptr %2, align 8, !tbaa !9
  %10 = lshr i64 %9, 33
  %11 = load i64, ptr %2, align 8, !tbaa !9
  %12 = xor i64 %11, %10
  store i64 %12, ptr %2, align 8, !tbaa !9
  %13 = load i64, ptr %2, align 8, !tbaa !9
  %14 = mul i64 %13, -4265267296055464877
  store i64 %14, ptr %2, align 8, !tbaa !9
  %15 = load i64, ptr %2, align 8, !tbaa !9
  %16 = lshr i64 %15, 33
  %17 = load i64, ptr %2, align 8, !tbaa !9
  %18 = xor i64 %17, %16
  store i64 %18, ptr %2, align 8, !tbaa !9
  %19 = load i64, ptr %2, align 8, !tbaa !9
  ret i64 %19
}

; Function Attrs: inlinehint nounwind uwtable
define internal i64 @hash_rotl_64(i64 noundef %0, i8 noundef signext %1) #4 {
  %3 = alloca i64, align 8
  %4 = alloca i8, align 1
  store i64 %0, ptr %3, align 8, !tbaa !9
  store i8 %1, ptr %4, align 1, !tbaa !38
  %5 = load i64, ptr %3, align 8, !tbaa !9
  %6 = load i8, ptr %4, align 1, !tbaa !38
  %7 = sext i8 %6 to i32
  %8 = zext i32 %7 to i64
  %9 = shl i64 %5, %8
  %10 = load i64, ptr %3, align 8, !tbaa !9
  %11 = load i8, ptr %4, align 1, !tbaa !38
  %12 = sext i8 %11 to i32
  %13 = sub nsw i32 64, %12
  %14 = zext i32 %13 to i64
  %15 = lshr i64 %10, %14
  %16 = or i64 %9, %15
  ret i64 %16
}

; Function Attrs: inlinehint nounwind uwtable
define internal i64 @hash_get_block_64(ptr noundef %0, i32 noundef %1) #4 {
  %3 = alloca i64, align 8
  %4 = alloca ptr, align 8
  %5 = alloca i32, align 4
  %6 = alloca i64, align 8
  store ptr %0, ptr %4, align 8, !tbaa !33
  store i32 %1, ptr %5, align 4, !tbaa !15
  %7 = load ptr, ptr %4, align 8, !tbaa !33
  %8 = ptrtoint ptr %7 to i64
  %9 = and i64 %8, 7
  %10 = icmp ne i64 %9, 0
  %11 = xor i1 %10, true
  %12 = xor i1 %11, true
  %13 = zext i1 %12 to i32
  %14 = sext i32 %13 to i64
  %15 = call i64 @llvm.expect.i64(i64 %14, i64 0)
  %16 = icmp ne i64 %15, 0
  br i1 %16, label %17, label %23

17:                                               ; preds = %2
  call void @llvm.lifetime.start.p0(i64 8, ptr %6) #11
  %18 = load ptr, ptr %4, align 8, !tbaa !33
  %19 = load i32, ptr %5, align 4, !tbaa !15
  %20 = sext i32 %19 to i64
  %21 = getelementptr inbounds i64, ptr %18, i64 %20
  call void @llvm.memcpy.p0.p0.i64(ptr align 8 %6, ptr align 1 %21, i64 8, i1 false)
  %22 = load i64, ptr %6, align 8, !tbaa !9
  store i64 %22, ptr %3, align 8
  call void @llvm.lifetime.end.p0(i64 8, ptr %6) #11
  br label %29

23:                                               ; preds = %2
  %24 = load ptr, ptr %4, align 8, !tbaa !33
  %25 = load i32, ptr %5, align 4, !tbaa !15
  %26 = sext i32 %25 to i64
  %27 = getelementptr inbounds i64, ptr %24, i64 %26
  %28 = load i64, ptr %27, align 8, !tbaa !9
  store i64 %28, ptr %3, align 8
  br label %29

29:                                               ; preds = %23, %17
  %30 = load i64, ptr %3, align 8
  ret i64 %30
}

; Function Attrs: inlinehint nounwind uwtable
define internal void @hash_x64_128(ptr noundef %0, i32 noundef %1, i32 noundef %2, ptr noundef %3) #4 {
  %5 = alloca ptr, align 8
  %6 = alloca i32, align 4
  %7 = alloca i32, align 4
  %8 = alloca ptr, align 8
  %9 = alloca ptr, align 8
  %10 = alloca i32, align 4
  %11 = alloca i64, align 8
  %12 = alloca i64, align 8
  %13 = alloca i64, align 8
  %14 = alloca i64, align 8
  %15 = alloca ptr, align 8
  %16 = alloca i32, align 4
  %17 = alloca i64, align 8
  %18 = alloca i64, align 8
  %19 = alloca ptr, align 8
  %20 = alloca i64, align 8
  %21 = alloca i64, align 8
  store ptr %0, ptr %5, align 8, !tbaa !8
  store i32 %1, ptr %6, align 4, !tbaa !15
  store i32 %2, ptr %7, align 4, !tbaa !15
  store ptr %3, ptr %8, align 8, !tbaa !33
  call void @llvm.lifetime.start.p0(i64 8, ptr %9) #11
  %22 = load ptr, ptr %5, align 8, !tbaa !8
  store ptr %22, ptr %9, align 8, !tbaa !95
  call void @llvm.lifetime.start.p0(i64 4, ptr %10) #11
  %23 = load i32, ptr %6, align 4, !tbaa !15
  %24 = sdiv i32 %23, 16
  store i32 %24, ptr %10, align 4, !tbaa !15
  call void @llvm.lifetime.start.p0(i64 8, ptr %11) #11
  %25 = load i32, ptr %7, align 4, !tbaa !15
  %26 = zext i32 %25 to i64
  store i64 %26, ptr %11, align 8, !tbaa !9
  call void @llvm.lifetime.start.p0(i64 8, ptr %12) #11
  %27 = load i32, ptr %7, align 4, !tbaa !15
  %28 = zext i32 %27 to i64
  store i64 %28, ptr %12, align 8, !tbaa !9
  call void @llvm.lifetime.start.p0(i64 8, ptr %13) #11
  store i64 -8663945395140668459, ptr %13, align 8, !tbaa !9
  call void @llvm.lifetime.start.p0(i64 8, ptr %14) #11
  store i64 5545529020109919103, ptr %14, align 8, !tbaa !9
  call void @llvm.lifetime.start.p0(i64 8, ptr %15) #11
  %29 = load ptr, ptr %9, align 8, !tbaa !95
  store ptr %29, ptr %15, align 8, !tbaa !33
  call void @llvm.lifetime.start.p0(i64 4, ptr %16) #11
  store i32 0, ptr %16, align 4, !tbaa !15
  br label %30

30:                                               ; preds = %79, %4
  %31 = load i32, ptr %16, align 4, !tbaa !15
  %32 = load i32, ptr %10, align 4, !tbaa !15
  %33 = icmp slt i32 %31, %32
  br i1 %33, label %34, label %82

34:                                               ; preds = %30
  call void @llvm.lifetime.start.p0(i64 8, ptr %17) #11
  %35 = load ptr, ptr %15, align 8, !tbaa !33
  %36 = load i32, ptr %16, align 4, !tbaa !15
  %37 = mul nsw i32 %36, 2
  %38 = add nsw i32 %37, 0
  %39 = call i64 @hash_get_block_64(ptr noundef %35, i32 noundef %38)
  store i64 %39, ptr %17, align 8, !tbaa !9
  call void @llvm.lifetime.start.p0(i64 8, ptr %18) #11
  %40 = load ptr, ptr %15, align 8, !tbaa !33
  %41 = load i32, ptr %16, align 4, !tbaa !15
  %42 = mul nsw i32 %41, 2
  %43 = add nsw i32 %42, 1
  %44 = call i64 @hash_get_block_64(ptr noundef %40, i32 noundef %43)
  store i64 %44, ptr %18, align 8, !tbaa !9
  %45 = load i64, ptr %17, align 8, !tbaa !9
  %46 = mul i64 %45, -8663945395140668459
  store i64 %46, ptr %17, align 8, !tbaa !9
  %47 = load i64, ptr %17, align 8, !tbaa !9
  %48 = call i64 @hash_rotl_64(i64 noundef %47, i8 noundef signext 31)
  store i64 %48, ptr %17, align 8, !tbaa !9
  %49 = load i64, ptr %17, align 8, !tbaa !9
  %50 = mul i64 %49, 5545529020109919103
  store i64 %50, ptr %17, align 8, !tbaa !9
  %51 = load i64, ptr %17, align 8, !tbaa !9
  %52 = load i64, ptr %11, align 8, !tbaa !9
  %53 = xor i64 %52, %51
  store i64 %53, ptr %11, align 8, !tbaa !9
  %54 = load i64, ptr %11, align 8, !tbaa !9
  %55 = call i64 @hash_rotl_64(i64 noundef %54, i8 noundef signext 27)
  store i64 %55, ptr %11, align 8, !tbaa !9
  %56 = load i64, ptr %12, align 8, !tbaa !9
  %57 = load i64, ptr %11, align 8, !tbaa !9
  %58 = add i64 %57, %56
  store i64 %58, ptr %11, align 8, !tbaa !9
  %59 = load i64, ptr %11, align 8, !tbaa !9
  %60 = mul i64 %59, 5
  %61 = add i64 %60, 1390208809
  store i64 %61, ptr %11, align 8, !tbaa !9
  %62 = load i64, ptr %18, align 8, !tbaa !9
  %63 = mul i64 %62, 5545529020109919103
  store i64 %63, ptr %18, align 8, !tbaa !9
  %64 = load i64, ptr %18, align 8, !tbaa !9
  %65 = call i64 @hash_rotl_64(i64 noundef %64, i8 noundef signext 33)
  store i64 %65, ptr %18, align 8, !tbaa !9
  %66 = load i64, ptr %18, align 8, !tbaa !9
  %67 = mul i64 %66, -8663945395140668459
  store i64 %67, ptr %18, align 8, !tbaa !9
  %68 = load i64, ptr %18, align 8, !tbaa !9
  %69 = load i64, ptr %12, align 8, !tbaa !9
  %70 = xor i64 %69, %68
  store i64 %70, ptr %12, align 8, !tbaa !9
  %71 = load i64, ptr %12, align 8, !tbaa !9
  %72 = call i64 @hash_rotl_64(i64 noundef %71, i8 noundef signext 31)
  store i64 %72, ptr %12, align 8, !tbaa !9
  %73 = load i64, ptr %11, align 8, !tbaa !9
  %74 = load i64, ptr %12, align 8, !tbaa !9
  %75 = add i64 %74, %73
  store i64 %75, ptr %12, align 8, !tbaa !9
  %76 = load i64, ptr %12, align 8, !tbaa !9
  %77 = mul i64 %76, 5
  %78 = add i64 %77, 944331445
  store i64 %78, ptr %12, align 8, !tbaa !9
  call void @llvm.lifetime.end.p0(i64 8, ptr %18) #11
  call void @llvm.lifetime.end.p0(i64 8, ptr %17) #11
  br label %79

79:                                               ; preds = %34
  %80 = load i32, ptr %16, align 4, !tbaa !15
  %81 = add nsw i32 %80, 1
  store i32 %81, ptr %16, align 4, !tbaa !15
  br label %30

82:                                               ; preds = %30
  call void @llvm.lifetime.end.p0(i64 4, ptr %16) #11
  call void @llvm.lifetime.end.p0(i64 8, ptr %15) #11
  call void @llvm.lifetime.start.p0(i64 8, ptr %19) #11
  %83 = load ptr, ptr %9, align 8, !tbaa !95
  %84 = load i32, ptr %10, align 4, !tbaa !15
  %85 = mul nsw i32 %84, 16
  %86 = sext i32 %85 to i64
  %87 = getelementptr inbounds i8, ptr %83, i64 %86
  store ptr %87, ptr %19, align 8, !tbaa !95
  call void @llvm.lifetime.start.p0(i64 8, ptr %20) #11
  store i64 0, ptr %20, align 8, !tbaa !9
  call void @llvm.lifetime.start.p0(i64 8, ptr %21) #11
  store i64 0, ptr %21, align 8, !tbaa !9
  %88 = load i32, ptr %6, align 4, !tbaa !15
  %89 = and i32 %88, 15
  switch i32 %89, label %228 [
    i32 15, label %90
    i32 14, label %98
    i32 13, label %106
    i32 12, label %114
    i32 11, label %122
    i32 10, label %130
    i32 9, label %138
    i32 8, label %155
    i32 7, label %163
    i32 6, label %171
    i32 5, label %179
    i32 4, label %187
    i32 3, label %195
    i32 2, label %203
    i32 1, label %211
  ]

90:                                               ; preds = %82
  %91 = load ptr, ptr %19, align 8, !tbaa !95
  %92 = getelementptr inbounds i8, ptr %91, i64 14
  %93 = load i8, ptr %92, align 1, !tbaa !38
  %94 = zext i8 %93 to i64
  %95 = shl i64 %94, 48
  %96 = load i64, ptr %21, align 8, !tbaa !9
  %97 = xor i64 %96, %95
  store i64 %97, ptr %21, align 8, !tbaa !9
  br label %98

98:                                               ; preds = %82, %90
  %99 = load ptr, ptr %19, align 8, !tbaa !95
  %100 = getelementptr inbounds i8, ptr %99, i64 13
  %101 = load i8, ptr %100, align 1, !tbaa !38
  %102 = zext i8 %101 to i64
  %103 = shl i64 %102, 40
  %104 = load i64, ptr %21, align 8, !tbaa !9
  %105 = xor i64 %104, %103
  store i64 %105, ptr %21, align 8, !tbaa !9
  br label %106

106:                                              ; preds = %82, %98
  %107 = load ptr, ptr %19, align 8, !tbaa !95
  %108 = getelementptr inbounds i8, ptr %107, i64 12
  %109 = load i8, ptr %108, align 1, !tbaa !38
  %110 = zext i8 %109 to i64
  %111 = shl i64 %110, 32
  %112 = load i64, ptr %21, align 8, !tbaa !9
  %113 = xor i64 %112, %111
  store i64 %113, ptr %21, align 8, !tbaa !9
  br label %114

114:                                              ; preds = %82, %106
  %115 = load ptr, ptr %19, align 8, !tbaa !95
  %116 = getelementptr inbounds i8, ptr %115, i64 11
  %117 = load i8, ptr %116, align 1, !tbaa !38
  %118 = zext i8 %117 to i64
  %119 = shl i64 %118, 24
  %120 = load i64, ptr %21, align 8, !tbaa !9
  %121 = xor i64 %120, %119
  store i64 %121, ptr %21, align 8, !tbaa !9
  br label %122

122:                                              ; preds = %82, %114
  %123 = load ptr, ptr %19, align 8, !tbaa !95
  %124 = getelementptr inbounds i8, ptr %123, i64 10
  %125 = load i8, ptr %124, align 1, !tbaa !38
  %126 = zext i8 %125 to i64
  %127 = shl i64 %126, 16
  %128 = load i64, ptr %21, align 8, !tbaa !9
  %129 = xor i64 %128, %127
  store i64 %129, ptr %21, align 8, !tbaa !9
  br label %130

130:                                              ; preds = %82, %122
  %131 = load ptr, ptr %19, align 8, !tbaa !95
  %132 = getelementptr inbounds i8, ptr %131, i64 9
  %133 = load i8, ptr %132, align 1, !tbaa !38
  %134 = zext i8 %133 to i64
  %135 = shl i64 %134, 8
  %136 = load i64, ptr %21, align 8, !tbaa !9
  %137 = xor i64 %136, %135
  store i64 %137, ptr %21, align 8, !tbaa !9
  br label %138

138:                                              ; preds = %82, %130
  %139 = load ptr, ptr %19, align 8, !tbaa !95
  %140 = getelementptr inbounds i8, ptr %139, i64 8
  %141 = load i8, ptr %140, align 1, !tbaa !38
  %142 = zext i8 %141 to i64
  %143 = shl i64 %142, 0
  %144 = load i64, ptr %21, align 8, !tbaa !9
  %145 = xor i64 %144, %143
  store i64 %145, ptr %21, align 8, !tbaa !9
  %146 = load i64, ptr %21, align 8, !tbaa !9
  %147 = mul i64 %146, 5545529020109919103
  store i64 %147, ptr %21, align 8, !tbaa !9
  %148 = load i64, ptr %21, align 8, !tbaa !9
  %149 = call i64 @hash_rotl_64(i64 noundef %148, i8 noundef signext 33)
  store i64 %149, ptr %21, align 8, !tbaa !9
  %150 = load i64, ptr %21, align 8, !tbaa !9
  %151 = mul i64 %150, -8663945395140668459
  store i64 %151, ptr %21, align 8, !tbaa !9
  %152 = load i64, ptr %21, align 8, !tbaa !9
  %153 = load i64, ptr %12, align 8, !tbaa !9
  %154 = xor i64 %153, %152
  store i64 %154, ptr %12, align 8, !tbaa !9
  br label %155

155:                                              ; preds = %82, %138
  %156 = load ptr, ptr %19, align 8, !tbaa !95
  %157 = getelementptr inbounds i8, ptr %156, i64 7
  %158 = load i8, ptr %157, align 1, !tbaa !38
  %159 = zext i8 %158 to i64
  %160 = shl i64 %159, 56
  %161 = load i64, ptr %20, align 8, !tbaa !9
  %162 = xor i64 %161, %160
  store i64 %162, ptr %20, align 8, !tbaa !9
  br label %163

163:                                              ; preds = %82, %155
  %164 = load ptr, ptr %19, align 8, !tbaa !95
  %165 = getelementptr inbounds i8, ptr %164, i64 6
  %166 = load i8, ptr %165, align 1, !tbaa !38
  %167 = zext i8 %166 to i64
  %168 = shl i64 %167, 48
  %169 = load i64, ptr %20, align 8, !tbaa !9
  %170 = xor i64 %169, %168
  store i64 %170, ptr %20, align 8, !tbaa !9
  br label %171

171:                                              ; preds = %82, %163
  %172 = load ptr, ptr %19, align 8, !tbaa !95
  %173 = getelementptr inbounds i8, ptr %172, i64 5
  %174 = load i8, ptr %173, align 1, !tbaa !38
  %175 = zext i8 %174 to i64
  %176 = shl i64 %175, 40
  %177 = load i64, ptr %20, align 8, !tbaa !9
  %178 = xor i64 %177, %176
  store i64 %178, ptr %20, align 8, !tbaa !9
  br label %179

179:                                              ; preds = %82, %171
  %180 = load ptr, ptr %19, align 8, !tbaa !95
  %181 = getelementptr inbounds i8, ptr %180, i64 4
  %182 = load i8, ptr %181, align 1, !tbaa !38
  %183 = zext i8 %182 to i64
  %184 = shl i64 %183, 32
  %185 = load i64, ptr %20, align 8, !tbaa !9
  %186 = xor i64 %185, %184
  store i64 %186, ptr %20, align 8, !tbaa !9
  br label %187

187:                                              ; preds = %82, %179
  %188 = load ptr, ptr %19, align 8, !tbaa !95
  %189 = getelementptr inbounds i8, ptr %188, i64 3
  %190 = load i8, ptr %189, align 1, !tbaa !38
  %191 = zext i8 %190 to i64
  %192 = shl i64 %191, 24
  %193 = load i64, ptr %20, align 8, !tbaa !9
  %194 = xor i64 %193, %192
  store i64 %194, ptr %20, align 8, !tbaa !9
  br label %195

195:                                              ; preds = %82, %187
  %196 = load ptr, ptr %19, align 8, !tbaa !95
  %197 = getelementptr inbounds i8, ptr %196, i64 2
  %198 = load i8, ptr %197, align 1, !tbaa !38
  %199 = zext i8 %198 to i64
  %200 = shl i64 %199, 16
  %201 = load i64, ptr %20, align 8, !tbaa !9
  %202 = xor i64 %201, %200
  store i64 %202, ptr %20, align 8, !tbaa !9
  br label %203

203:                                              ; preds = %82, %195
  %204 = load ptr, ptr %19, align 8, !tbaa !95
  %205 = getelementptr inbounds i8, ptr %204, i64 1
  %206 = load i8, ptr %205, align 1, !tbaa !38
  %207 = zext i8 %206 to i64
  %208 = shl i64 %207, 8
  %209 = load i64, ptr %20, align 8, !tbaa !9
  %210 = xor i64 %209, %208
  store i64 %210, ptr %20, align 8, !tbaa !9
  br label %211

211:                                              ; preds = %82, %203
  %212 = load ptr, ptr %19, align 8, !tbaa !95
  %213 = getelementptr inbounds i8, ptr %212, i64 0
  %214 = load i8, ptr %213, align 1, !tbaa !38
  %215 = zext i8 %214 to i64
  %216 = shl i64 %215, 0
  %217 = load i64, ptr %20, align 8, !tbaa !9
  %218 = xor i64 %217, %216
  store i64 %218, ptr %20, align 8, !tbaa !9
  %219 = load i64, ptr %20, align 8, !tbaa !9
  %220 = mul i64 %219, -8663945395140668459
  store i64 %220, ptr %20, align 8, !tbaa !9
  %221 = load i64, ptr %20, align 8, !tbaa !9
  %222 = call i64 @hash_rotl_64(i64 noundef %221, i8 noundef signext 31)
  store i64 %222, ptr %20, align 8, !tbaa !9
  %223 = load i64, ptr %20, align 8, !tbaa !9
  %224 = mul i64 %223, 5545529020109919103
  store i64 %224, ptr %20, align 8, !tbaa !9
  %225 = load i64, ptr %20, align 8, !tbaa !9
  %226 = load i64, ptr %11, align 8, !tbaa !9
  %227 = xor i64 %226, %225
  store i64 %227, ptr %11, align 8, !tbaa !9
  br label %228

228:                                              ; preds = %82, %211
  call void @llvm.lifetime.end.p0(i64 8, ptr %21) #11
  call void @llvm.lifetime.end.p0(i64 8, ptr %20) #11
  call void @llvm.lifetime.end.p0(i64 8, ptr %19) #11
  %229 = load i32, ptr %6, align 4, !tbaa !15
  %230 = sext i32 %229 to i64
  %231 = load i64, ptr %11, align 8, !tbaa !9
  %232 = xor i64 %231, %230
  store i64 %232, ptr %11, align 8, !tbaa !9
  %233 = load i32, ptr %6, align 4, !tbaa !15
  %234 = sext i32 %233 to i64
  %235 = load i64, ptr %12, align 8, !tbaa !9
  %236 = xor i64 %235, %234
  store i64 %236, ptr %12, align 8, !tbaa !9
  %237 = load i64, ptr %12, align 8, !tbaa !9
  %238 = load i64, ptr %11, align 8, !tbaa !9
  %239 = add i64 %238, %237
  store i64 %239, ptr %11, align 8, !tbaa !9
  %240 = load i64, ptr %11, align 8, !tbaa !9
  %241 = load i64, ptr %12, align 8, !tbaa !9
  %242 = add i64 %241, %240
  store i64 %242, ptr %12, align 8, !tbaa !9
  %243 = load i64, ptr %11, align 8, !tbaa !9
  %244 = call i64 @hash_fmix_64(i64 noundef %243)
  store i64 %244, ptr %11, align 8, !tbaa !9
  %245 = load i64, ptr %12, align 8, !tbaa !9
  %246 = call i64 @hash_fmix_64(i64 noundef %245)
  store i64 %246, ptr %12, align 8, !tbaa !9
  %247 = load i64, ptr %12, align 8, !tbaa !9
  %248 = load i64, ptr %11, align 8, !tbaa !9
  %249 = add i64 %248, %247
  store i64 %249, ptr %11, align 8, !tbaa !9
  %250 = load i64, ptr %11, align 8, !tbaa !9
  %251 = load i64, ptr %12, align 8, !tbaa !9
  %252 = add i64 %251, %250
  store i64 %252, ptr %12, align 8, !tbaa !9
  %253 = load i64, ptr %11, align 8, !tbaa !9
  %254 = load ptr, ptr %8, align 8, !tbaa !33
  %255 = getelementptr inbounds i64, ptr %254, i64 0
  store i64 %253, ptr %255, align 8, !tbaa !9
  %256 = load i64, ptr %12, align 8, !tbaa !9
  %257 = load ptr, ptr %8, align 8, !tbaa !33
  %258 = getelementptr inbounds i64, ptr %257, i64 1
  store i64 %256, ptr %258, align 8, !tbaa !9
  call void @llvm.lifetime.end.p0(i64 8, ptr %14) #11
  call void @llvm.lifetime.end.p0(i64 8, ptr %13) #11
  call void @llvm.lifetime.end.p0(i64 8, ptr %12) #11
  call void @llvm.lifetime.end.p0(i64 8, ptr %11) #11
  call void @llvm.lifetime.end.p0(i64 4, ptr %10) #11
  call void @llvm.lifetime.end.p0(i64 8, ptr %9) #11
  ret void
}

; Function Attrs: inlinehint nounwind uwtable
define internal void @hash(ptr noundef %0, i64 noundef %1, i32 noundef %2, ptr noundef %3) #4 {
  %5 = alloca ptr, align 8
  %6 = alloca i64, align 8
  %7 = alloca i32, align 4
  %8 = alloca ptr, align 8
  store ptr %0, ptr %5, align 8, !tbaa !8
  store i64 %1, ptr %6, align 8, !tbaa !9
  store i32 %2, ptr %7, align 4, !tbaa !15
  store ptr %3, ptr %8, align 8, !tbaa !33
  br label %9

9:                                                ; preds = %4
  br label %10

10:                                               ; preds = %9
  %11 = load ptr, ptr %5, align 8, !tbaa !8
  %12 = load i64, ptr %6, align 8, !tbaa !9
  %13 = trunc i64 %12 to i32
  %14 = load i32, ptr %7, align 4, !tbaa !15
  %15 = load ptr, ptr %8, align 8, !tbaa !33
  call void @hash_x64_128(ptr noundef %11, i32 noundef %13, i32 noundef %14, ptr noundef %15)
  ret void
}

; Function Attrs: nounwind uwtable
define void @duckdb_je_ckh_pointer_hash(ptr noundef %0, ptr noundef %1) #0 {
  %3 = alloca ptr, align 8
  %4 = alloca ptr, align 8
  %5 = alloca %union.anon, align 8
  store ptr %0, ptr %3, align 8, !tbaa !8
  store ptr %1, ptr %4, align 8, !tbaa !33
  call void @llvm.lifetime.start.p0(i64 8, ptr %5) #11
  br label %6

6:                                                ; preds = %2
  br label %7

7:                                                ; preds = %6
  br label %8

8:                                                ; preds = %7
  %9 = load ptr, ptr %3, align 8, !tbaa !8
  store ptr %9, ptr %5, align 8, !tbaa !38
  %10 = load ptr, ptr %4, align 8, !tbaa !33
  call void @hash(ptr noundef %5, i64 noundef 8, i32 noundef -645711506, ptr noundef %10)
  call void @llvm.lifetime.end.p0(i64 8, ptr %5) #11
  ret void
}