; Function Attrs: mustprogress nofree norecurse nosync nounwind willreturn memory(argmem: write) uwtable
define void @duckdb_je_ckh_pointer_hash(ptr noundef %0, ptr noundef writeonly captures(none) initializes((0, 16)) %1) local_unnamed_addr #8 {
  %3 = ptrtoint ptr %0 to i64
  %4 = mul i64 %3, -8663945395140668459
  %5 = mul i64 %3, -8601547726154366976
  %6 = lshr i64 %4, 33
  %7 = or disjoint i64 %6, %5
  %8 = mul i64 %7, 5545529020109919103
  %9 = xor i64 %8, 3649255782
  %10 = add i64 %9, 3649255782
  %11 = add i64 %9, 7298511564
  %12 = lshr i64 %10, 33
  %13 = xor i64 %12, %10
  %14 = mul i64 %13, -49064778989728563
  %15 = lshr i64 %14, 33
  %16 = xor i64 %15, %14
  %17 = mul i64 %16, -4265267296055464877
  %18 = lshr i64 %17, 33
  %19 = xor i64 %18, %17
  %20 = lshr i64 %11, 33
  %21 = xor i64 %20, %11
  %22 = mul i64 %21, -49064778989728563
  %23 = lshr i64 %22, 33
  %24 = xor i64 %23, %22
  %25 = mul i64 %24, -4265267296055464877
  %26 = lshr i64 %25, 33
  %27 = xor i64 %26, %25
  %28 = add i64 %27, %19
  %29 = add i64 %28, %27
  store i64 %28, ptr %1, align 8, !tbaa !17
  %30 = getelementptr inbounds nuw i8, ptr %1, i64 8
  store i64 %29, ptr %30, align 8, !tbaa !17
  ret void
}